target datalayout = "e-m:e-p270:32:32-p271:32:32-p272:64:64-i64:64-i128:128-f80:128-n8:16:32:64-S128"
target triple = "x86_64-pc-linux-gnu"

@.str = private unnamed_addr constant [36 x i8] c"%*u %*u %*u:%*u %*s %ms %*[^-]- %ms\00", align 1

; Function Attrs: mustprogress nounwind uwtable
define hidden noundef ptr @_ZNK11XMountPoint14get_mountpointEPKcS1_(ptr noundef nonnull align 8 dereferenceable(8) %0, ptr noundef %1, ptr noundef %2) #1 align 2 {
  %4 = alloca ptr, align 8
  %5 = alloca ptr, align 8
  %6 = alloca ptr, align 8
  %7 = alloca ptr, align 8
  %8 = alloca ptr, align 8
  store ptr %0, ptr %4, align 8
  store ptr %1, ptr %5, align 8
  store ptr %2, ptr %6, align 8
  store ptr null, ptr %7, align 8
  store ptr null, ptr %8, align 8
  %9 = load ptr, ptr %5, align 8
  %10 = call i32 (ptr, ptr, ...) @__isoc99_sscanf(ptr noundef %9, ptr noundef @.str, ptr noundef %7, ptr noundef %8) #8
  %11 = icmp ne i32 %10, 2
  br i1 %11, label %21, label %12

12:                                               ; preds = %3
  %13 = load ptr, ptr %8, align 8
  %14 = load ptr, ptr %6, align 8
  %15 = call i32 @strcmp(ptr noundef %13, ptr noundef %14) #9
  %16 = icmp ne i32 %15, 0
  br i1 %16, label %21, label %17

17:                                               ; preds = %12
  %18 = load ptr, ptr %7, align 8
  %19 = call i32 @access(ptr noundef %18, i32 noundef 7) #8
  %20 = icmp ne i32 %19, 0
  br i1 %20, label %21, label %23

21:                                               ; preds = %17, %12, %3
  %22 = load ptr, ptr %7, align 8
  call void @free(ptr noundef %22) #8
  store ptr null, ptr %7, align 8
  br label %23

23:                                               ; preds = %21, %17
  %24 = load ptr, ptr %8, align 8
  call void @free(ptr noundef %24) #8
  %25 = load ptr, ptr %7, align 8
  ret ptr %25
}