; Function Attrs: mustprogress nounwind uwtable
define hidden noundef ptr @_ZNK11XMountPoint14get_mountpointEPKcS1_(ptr nocapture noundef nonnull readnone align 8 dereferenceable(8) %0, ptr nocapture noundef readonly %1, ptr nocapture noundef readonly %2) local_unnamed_addr #0 align 2 {
  %4 = alloca ptr, align 8
  %5 = alloca ptr, align 8
  store ptr null, ptr %4, align 8
  store ptr null, ptr %5, align 8
  %6 = call i32 (ptr, ptr, ...) @__isoc99_sscanf(ptr noundef %1, ptr noundef nonnull @.str, ptr noundef nonnull %4, ptr noundef nonnull %5) #11
  %.not = icmp eq i32 %6, 2
  br i1 %.not, label %7, label %13

7:                                                ; preds = %3
  %8 = load ptr, ptr %5, align 8
  %9 = call i32 @strcmp(ptr noundef nonnull dereferenceable(1) %8, ptr noundef nonnull dereferenceable(1) %2) #12
  %.not2 = icmp eq i32 %9, 0
  br i1 %.not2, label %10, label %13

10:                                               ; preds = %7
  %11 = load ptr, ptr %4, align 8
  %12 = call i32 @access(ptr noundef %11, i32 noundef 7) #11
  %.not3 = icmp eq i32 %12, 0
  br i1 %.not3, label %15, label %13

13:                                               ; preds = %10, %7, %3
  %14 = load ptr, ptr %4, align 8
  call void @free(ptr noundef %14) #11
  store ptr null, ptr %4, align 8
  br label %15

15:                                               ; preds = %13, %10
  %16 = load ptr, ptr %5, align 8
  call void @free(ptr noundef %16) #11
  %17 = load ptr, ptr %4, align 8
  ret ptr %17
}